; Function Attrs: mustprogress nounwind uwtable
define dso_local void @_ZN15b3ConvexUtilityD0Ev(ptr noundef nonnull align 16 dereferenceable(184) %this) unnamed_addr #0 align 2 personality ptr @__gxx_personality_v0 {
entry:
  tail call void @_ZN15b3ConvexUtilityD2Ev(ptr noundef nonnull align 16 dereferenceable(184) %this) #11
  invoke void @_Z21b3AlignedFreeInternalPv(ptr noundef nonnull %this)
          to label %_ZN15b3ConvexUtilitydlEPv.exit unwind label %terminate.lpad.i

terminate.lpad.i:                                 ; preds = %entry
  %0 = landingpad { ptr, i32 }
          catch ptr null
  %1 = extractvalue { ptr, i32 } %0, 0
  tail call void @__clang_call_terminate(ptr %1) #10
  unreachable

_ZN15b3ConvexUtilitydlEPv.exit:                   ; preds = %entry
  ret void
}